   1              		.file	"ex13.cpp"
   2              	# GNU C++14 (GCC) version 8.3.1 20190223 (Red Hat 8.3.1-2) (x86_64-redhat-linux)
   3              	#	compiled by GNU C version 8.3.1 20190223 (Red Hat 8.3.1-2), GMP version 6.1.2, MPFR version 3.1.6
   4              	# GGC heuristics: --param ggc-min-expand=100 --param ggc-min-heapsize=131072
   5              	# options passed:  -D_GNU_SOURCE ex13.cpp -mtune=generic -march=x86-64 -g
   6              	# -fverbose-asm
   7              	# options enabled:  -faggressive-loop-optimizations
   8              	# -fasynchronous-unwind-tables -fauto-inc-dec -fchkp-check-incomplete-type
   9              	# -fchkp-check-read -fchkp-check-write -fchkp-instrument-calls
  10              	# -fchkp-narrow-bounds -fchkp-optimize -fchkp-store-bounds
  11              	# -fchkp-use-static-bounds -fchkp-use-static-const-bounds
  12              	# -fchkp-use-wrappers -fcommon -fdelete-null-pointer-checks
  13              	# -fdwarf2-cfi-asm -fearly-inlining -feliminate-unused-debug-types
  14              	# -fexceptions -ffp-int-builtin-inexact -ffunction-cse -fgcse-lm
  15              	# -fgnu-runtime -fgnu-unique -fident -finline-atomics -fira-hoist-pressure
  16              	# -fira-share-save-slots -fira-share-spill-slots -fivopts
  17              	# -fkeep-static-consts -fleading-underscore -flifetime-dse
  18              	# -flto-odr-type-merging -fmath-errno -fmerge-debug-strings -fpeephole
  19              	# -fplt -fprefetch-loop-arrays -freg-struct-return
  20              	# -fsched-critical-path-heuristic -fsched-dep-count-heuristic
  21              	# -fsched-group-heuristic -fsched-interblock -fsched-last-insn-heuristic
  22              	# -fsched-rank-heuristic -fsched-spec -fsched-spec-insn-heuristic
  23              	# -fsched-stalled-insns-dep -fschedule-fusion -fsemantic-interposition
  24              	# -fshow-column -fshrink-wrap-separate -fsigned-zeros
  25              	# -fsplit-ivs-in-unroller -fssa-backprop -fstdarg-opt
  26              	# -fstrict-volatile-bitfields -fsync-libcalls -ftrapping-math -ftree-cselim
  27              	# -ftree-forwprop -ftree-loop-if-convert -ftree-loop-im -ftree-loop-ivcanon
  28              	# -ftree-loop-optimize -ftree-parallelize-loops= -ftree-phiprop
  29              	# -ftree-reassoc -ftree-scev-cprop -funit-at-a-time -funwind-tables
  30              	# -fverbose-asm -fzero-initialized-in-bss -m128bit-long-double -m64 -m80387
  31              	# -malign-stringops -mavx256-split-unaligned-load
  32              	# -mavx256-split-unaligned-store -mfancy-math-387 -mfp-ret-in-387 -mfxsr
  33              	# -mglibc -mieee-fp -mlong-double-80 -mmmx -mno-sse4 -mpush-args -mred-zone
  34              	# -msse -msse2 -mstv -mtls-direct-seg-refs -mvzeroupper
  35              	
  36              		.text
  37              	.Ltext0:
  38              		.section	.rodata
  41              	_ZStL19piecewise_construct:
  42 0000 00       		.zero	1
  43              		.local	_ZStL8__ioinit
  44              		.comm	_ZStL8__ioinit,1,1
  45              		.text
  46              		.globl	_Z13ind_iterationPKii
  48              	_Z13ind_iterationPKii:
  49              	.LFB1517:
  50              		.file 1 "ex13.cpp"
   1:ex13.cpp      **** #include <iostream>
   2:ex13.cpp      **** 
   3:ex13.cpp      **** 
   4:ex13.cpp      **** void ind_iteration(const int* arr, const int size){
  51              		.loc 1 4 51
  52              		.cfi_startproc
  53 0000 55       		pushq	%rbp	#
  54              		.cfi_def_cfa_offset 16
  55              		.cfi_offset 6, -16
  56 0001 4889E5   		movq	%rsp, %rbp	#,
  57              		.cfi_def_cfa_register 6
  58 0004 4883EC20 		subq	$32, %rsp	#,
  59 0008 48897DE8 		movq	%rdi, -24(%rbp)	# arr, arr
  60 000c 8975E4   		movl	%esi, -28(%rbp)	# size, size
  61              	.LBB2:
  62              	# ex13.cpp:5:     for (int i=0; i<size; i++){
   5:ex13.cpp      ****     for (int i=0; i<size; i++){
  63              		.loc 1 5 14
  64 000f C745FC00 		movl	$0, -4(%rbp)	#, i
  64      000000
  65              	.L3:
  66              	# ex13.cpp:5:     for (int i=0; i<size; i++){
  67              		.loc 1 5 20 discriminator 3
  68 0016 8B45FC   		movl	-4(%rbp), %eax	# i, tmp92
  69 0019 3B45E4   		cmpl	-28(%rbp), %eax	# size, tmp92
  70 001c 7D35     		jge	.L4	#,
  71              	# ex13.cpp:6:         std::cout << arr[i] << std::endl;
   6:ex13.cpp      ****         std::cout << arr[i] << std::endl;
  72              		.loc 1 6 27 discriminator 2
  73 001e 8B45FC   		movl	-4(%rbp), %eax	# i, tmp93
  74 0021 4898     		cltq
  75 0023 488D1485 		leaq	0(,%rax,4), %rdx	#, _2
  75      00000000 
  76 002b 488B45E8 		movq	-24(%rbp), %rax	# arr, tmp94
  77 002f 4801D0   		addq	%rdx, %rax	# _2, _3
  78 0032 8B00     		movl	(%rax), %eax	# *_3, _4
  79 0034 89C6     		movl	%eax, %esi	# _4,
  80 0036 BF000000 		movl	$_ZSt4cout, %edi	#,
  80      00
  81 003b E8000000 		call	_ZNSolsEi	#
  81      00
  82              	# ex13.cpp:6:         std::cout << arr[i] << std::endl;
  83              		.loc 1 6 37 discriminator 2
  84 0040 BE000000 		movl	$_ZSt4endlIcSt11char_traitsIcEERSt13basic_ostreamIT_T0_ES6_, %esi	#,
  84      00
  85 0045 4889C7   		movq	%rax, %rdi	# _5,
  86 0048 E8000000 		call	_ZNSolsEPFRSoS_E	#
  86      00
  87              	# ex13.cpp:5:     for (int i=0; i<size; i++){
   5:ex13.cpp      ****     for (int i=0; i<size; i++){
  88              		.loc 1 5 5 discriminator 2
  89 004d 8345FC01 		addl	$1, -4(%rbp)	#, i
  90 0051 EBC3     		jmp	.L3	#
  91              	.L4:
  92              	.LBE2:
  93              	# ex13.cpp:8: }
   7:ex13.cpp      ****     }
   8:ex13.cpp      **** }
  94              		.loc 1 8 1
  95 0053 90       		nop	
  96 0054 C9       		leave	
  97              		.cfi_def_cfa 7, 8
  98 0055 C3       		ret	
  99              		.cfi_endproc
 100              	.LFE1517:
 102              		.globl	_Z13ptr_iterationPKii
 104              	_Z13ptr_iterationPKii:
 105              	.LFB1518:
   9:ex13.cpp      **** 
  10:ex13.cpp      **** void ptr_iteration(const int* arr, const int size){
 106              		.loc 1 10 51
 107              		.cfi_startproc
 108 0056 55       		pushq	%rbp	#
 109              		.cfi_def_cfa_offset 16
 110              		.cfi_offset 6, -16
 111 0057 4889E5   		movq	%rsp, %rbp	#,
 112              		.cfi_def_cfa_register 6
 113 005a 4883EC20 		subq	$32, %rsp	#,
 114 005e 48897DE8 		movq	%rdi, -24(%rbp)	# arr, arr
 115 0062 8975E4   		movl	%esi, -28(%rbp)	# size, size
 116              	# ex13.cpp:11:     const int* end = arr+size;
  11:ex13.cpp      ****     const int* end = arr+size;
 117              		.loc 1 11 25
 118 0065 8B45E4   		movl	-28(%rbp), %eax	# size, tmp91
 119 0068 4898     		cltq
 120 006a 488D1485 		leaq	0(,%rax,4), %rdx	#, _2
 120      00000000 
 121              	# ex13.cpp:11:     const int* end = arr+size;
 122              		.loc 1 11 16
 123 0072 488B45E8 		movq	-24(%rbp), %rax	# arr, tmp95
 124 0076 4801D0   		addq	%rdx, %rax	# _2, tmp94
 125 0079 488945F0 		movq	%rax, -16(%rbp)	# tmp94, end
 126              	.LBB3:
 127              	# ex13.cpp:13:     for (const int *ptr = arr; ptr != end; ptr++){
  12:ex13.cpp      ****     //while(arr != end){
  13:ex13.cpp      ****     for (const int *ptr = arr; ptr != end; ptr++){
 128              		.loc 1 13 21
 129 007d 488B45E8 		movq	-24(%rbp), %rax	# arr, tmp96
 130 0081 488945F8 		movq	%rax, -8(%rbp)	# tmp96, ptr
 131              	.L7:
 132              	# ex13.cpp:13:     for (const int *ptr = arr; ptr != end; ptr++){
 133              		.loc 1 13 36 discriminator 3
 134 0085 488B45F8 		movq	-8(%rbp), %rax	# ptr, tmp97
 135 0089 483B45F0 		cmpq	-16(%rbp), %rax	# end, tmp97
 136 008d 742B     		je	.L8	#,
 137              	# ex13.cpp:14:         std::cout << *ptr << std::endl;
  14:ex13.cpp      ****         std::cout << *ptr << std::endl;
 138              		.loc 1 14 23 discriminator 2
 139 008f 488B45F8 		movq	-8(%rbp), %rax	# ptr, tmp98
 140 0093 8B00     		movl	(%rax), %eax	# *ptr_6, _3
 141 0095 89C6     		movl	%eax, %esi	# _3,
 142 0097 BF000000 		movl	$_ZSt4cout, %edi	#,
 142      00
 143 009c E8000000 		call	_ZNSolsEi	#
 143      00
 144              	# ex13.cpp:14:         std::cout << *ptr << std::endl;
 145              		.loc 1 14 35 discriminator 2
 146 00a1 BE000000 		movl	$_ZSt4endlIcSt11char_traitsIcEERSt13basic_ostreamIT_T0_ES6_, %esi	#,
 146      00
 147 00a6 4889C7   		movq	%rax, %rdi	# _4,
 148 00a9 E8000000 		call	_ZNSolsEPFRSoS_E	#
 148      00
 149              	# ex13.cpp:15:         arr++;
  15:ex13.cpp      ****         arr++;
 150              		.loc 1 15 12 discriminator 2
 151 00ae 488345E8 		addq	$4, -24(%rbp)	#, arr
 151      04
 152              	# ex13.cpp:13:     for (const int *ptr = arr; ptr != end; ptr++){
  13:ex13.cpp      ****         std::cout << *ptr << std::endl;
 153              		.loc 1 13 5 discriminator 2
 154 00b3 488345F8 		addq	$4, -8(%rbp)	#, ptr
 154      04
 155 00b8 EBCB     		jmp	.L7	#
 156              	.L8:
 157              	.LBE3:
 158              	# ex13.cpp:17: }
  16:ex13.cpp      ****     }
  17:ex13.cpp      **** }
 159              		.loc 1 17 1
 160 00ba 90       		nop	
 161 00bb C9       		leave	
 162              		.cfi_def_cfa 7, 8
 163 00bc C3       		ret	
 164              		.cfi_endproc
 165              	.LFE1518:
 167              		.globl	main
 169              	main:
 170              	.LFB1519:
  18:ex13.cpp      **** 
  19:ex13.cpp      **** int main(){
 171              		.loc 1 19 11
 172              		.cfi_startproc
 173 00bd 55       		pushq	%rbp	#
 174              		.cfi_def_cfa_offset 16
 175              		.cfi_offset 6, -16
 176 00be 4889E5   		movq	%rsp, %rbp	#,
 177              		.cfi_def_cfa_register 6
 178 00c1 4883EC20 		subq	$32, %rsp	#,
 179              	# ex13.cpp:20:     int a[5]={0, 1, 2, 3, 4}, b=5;
  20:ex13.cpp      ****     int a[5]={0, 1, 2, 3, 4}, b=5;
 180              		.loc 1 20 9
 181 00c5 C745E000 		movl	$0, -32(%rbp)	#, a
 181      000000
 182 00cc C745E401 		movl	$1, -28(%rbp)	#, a
 182      000000
 183 00d3 C745E802 		movl	$2, -24(%rbp)	#, a
 183      000000
 184 00da C745EC03 		movl	$3, -20(%rbp)	#, a
 184      000000
 185 00e1 C745F004 		movl	$4, -16(%rbp)	#, a
 185      000000
 186              	# ex13.cpp:20:     int a[5]={0, 1, 2, 3, 4}, b=5;
 187              		.loc 1 20 31
 188 00e8 C745FC05 		movl	$5, -4(%rbp)	#, b
 188      000000
 189              	# ex13.cpp:21:     ind_iteration(a, b);
  21:ex13.cpp      ****     ind_iteration(a, b);
 190              		.loc 1 21 18
 191 00ef 8B55FC   		movl	-4(%rbp), %edx	# b, tmp89
 192 00f2 488D45E0 		leaq	-32(%rbp), %rax	#, tmp90
 193 00f6 89D6     		movl	%edx, %esi	# tmp89,
 194 00f8 4889C7   		movq	%rax, %rdi	# tmp90,
 195 00fb E8000000 		call	_Z13ind_iterationPKii	#
 195      00
 196              	# ex13.cpp:22:     ptr_iteration(a, b);
  22:ex13.cpp      ****     ptr_iteration(a, b);
 197              		.loc 1 22 18
 198 0100 8B55FC   		movl	-4(%rbp), %edx	# b, tmp91
 199 0103 488D45E0 		leaq	-32(%rbp), %rax	#, tmp92
 200 0107 89D6     		movl	%edx, %esi	# tmp91,
 201 0109 4889C7   		movq	%rax, %rdi	# tmp92,
 202 010c E8000000 		call	_Z13ptr_iterationPKii	#
 202      00
 203              	# ex13.cpp:23: }
  23:ex13.cpp      **** }
 204              		.loc 1 23 1
 205 0111 B8000000 		movl	$0, %eax	#, _12
 205      00
 206 0116 C9       		leave	
 207              		.cfi_def_cfa 7, 8
 208 0117 C3       		ret	
 209              		.cfi_endproc
 210              	.LFE1519:
 213              	_Z41__static_initialization_and_destruction_0ii:
 214              	.LFB2005:
 215              		.loc 1 23 1
 216              		.cfi_startproc
 217 0118 55       		pushq	%rbp	#
 218              		.cfi_def_cfa_offset 16
 219              		.cfi_offset 6, -16
 220 0119 4889E5   		movq	%rsp, %rbp	#,
 221              		.cfi_def_cfa_register 6
 222 011c 4883EC10 		subq	$16, %rsp	#,
 223 0120 897DFC   		movl	%edi, -4(%rbp)	# __initialize_p, __initialize_p
 224 0123 8975F8   		movl	%esi, -8(%rbp)	# __priority, __priority
 225              	# ex13.cpp:23: }
 226              		.loc 1 23 1
 227 0126 837DFC01 		cmpl	$1, -4(%rbp)	#, __initialize_p
 228 012a 7527     		jne	.L13	#,
 229              	# ex13.cpp:23: }
 230              		.loc 1 23 1 is_stmt 0 discriminator 1
 231 012c 817DF8FF 		cmpl	$65535, -8(%rbp)	#, __priority
 231      FF0000
 232 0133 751E     		jne	.L13	#,
 233              	# /usr/include/c++/8/iostream:74:   static ios_base::Init __ioinit;
 234              		.file 2 "/usr/include/c++/8/iostream"
   1:/usr/include/c++/8/iostream **** // Standard iostream objects -*- C++ -*-
   2:/usr/include/c++/8/iostream **** 
   3:/usr/include/c++/8/iostream **** // Copyright (C) 1997-2018 Free Software Foundation, Inc.
   4:/usr/include/c++/8/iostream **** //
   5:/usr/include/c++/8/iostream **** // This file is part of the GNU ISO C++ Library.  This library is free
   6:/usr/include/c++/8/iostream **** // software; you can redistribute it and/or modify it under the
   7:/usr/include/c++/8/iostream **** // terms of the GNU General Public License as published by the
   8:/usr/include/c++/8/iostream **** // Free Software Foundation; either version 3, or (at your option)
   9:/usr/include/c++/8/iostream **** // any later version.
  10:/usr/include/c++/8/iostream **** 
  11:/usr/include/c++/8/iostream **** // This library is distributed in the hope that it will be useful,
  12:/usr/include/c++/8/iostream **** // but WITHOUT ANY WARRANTY; without even the implied warranty of
  13:/usr/include/c++/8/iostream **** // MERCHANTABILITY or FITNESS FOR A PARTICULAR PURPOSE.  See the
  14:/usr/include/c++/8/iostream **** // GNU General Public License for more details.
  15:/usr/include/c++/8/iostream **** 
  16:/usr/include/c++/8/iostream **** // Under Section 7 of GPL version 3, you are granted additional
  17:/usr/include/c++/8/iostream **** // permissions described in the GCC Runtime Library Exception, version
  18:/usr/include/c++/8/iostream **** // 3.1, as published by the Free Software Foundation.
  19:/usr/include/c++/8/iostream **** 
  20:/usr/include/c++/8/iostream **** // You should have received a copy of the GNU General Public License and
  21:/usr/include/c++/8/iostream **** // a copy of the GCC Runtime Library Exception along with this program;
  22:/usr/include/c++/8/iostream **** // see the files COPYING3 and COPYING.RUNTIME respectively.  If not, see
  23:/usr/include/c++/8/iostream **** // <http://www.gnu.org/licenses/>.
  24:/usr/include/c++/8/iostream **** 
  25:/usr/include/c++/8/iostream **** /** @file include/iostream
  26:/usr/include/c++/8/iostream ****  *  This is a Standard C++ Library header.
  27:/usr/include/c++/8/iostream ****  */
  28:/usr/include/c++/8/iostream **** 
  29:/usr/include/c++/8/iostream **** //
  30:/usr/include/c++/8/iostream **** // ISO C++ 14882: 27.3  Standard iostream objects
  31:/usr/include/c++/8/iostream **** //
  32:/usr/include/c++/8/iostream **** 
  33:/usr/include/c++/8/iostream **** #ifndef _GLIBCXX_IOSTREAM
  34:/usr/include/c++/8/iostream **** #define _GLIBCXX_IOSTREAM 1
  35:/usr/include/c++/8/iostream **** 
  36:/usr/include/c++/8/iostream **** #pragma GCC system_header
  37:/usr/include/c++/8/iostream **** 
  38:/usr/include/c++/8/iostream **** #include <bits/c++config.h>
  39:/usr/include/c++/8/iostream **** #include <ostream>
  40:/usr/include/c++/8/iostream **** #include <istream>
  41:/usr/include/c++/8/iostream **** 
  42:/usr/include/c++/8/iostream **** namespace std _GLIBCXX_VISIBILITY(default)
  43:/usr/include/c++/8/iostream **** {
  44:/usr/include/c++/8/iostream **** _GLIBCXX_BEGIN_NAMESPACE_VERSION
  45:/usr/include/c++/8/iostream **** 
  46:/usr/include/c++/8/iostream ****   /**
  47:/usr/include/c++/8/iostream ****    *  @name Standard Stream Objects
  48:/usr/include/c++/8/iostream ****    *
  49:/usr/include/c++/8/iostream ****    *  The &lt;iostream&gt; header declares the eight <em>standard stream
  50:/usr/include/c++/8/iostream ****    *  objects</em>.  For other declarations, see
  51:/usr/include/c++/8/iostream ****    *  http://gcc.gnu.org/onlinedocs/libstdc++/manual/io.html
  52:/usr/include/c++/8/iostream ****    *  and the @link iosfwd I/O forward declarations @endlink
  53:/usr/include/c++/8/iostream ****    *
  54:/usr/include/c++/8/iostream ****    *  They are required by default to cooperate with the global C
  55:/usr/include/c++/8/iostream ****    *  library's @c FILE streams, and to be available during program
  56:/usr/include/c++/8/iostream ****    *  startup and termination. For more information, see the section of the
  57:/usr/include/c++/8/iostream ****    *  manual linked to above.
  58:/usr/include/c++/8/iostream ****   */
  59:/usr/include/c++/8/iostream ****   //@{
  60:/usr/include/c++/8/iostream ****   extern istream cin;		/// Linked to standard input
  61:/usr/include/c++/8/iostream ****   extern ostream cout;		/// Linked to standard output
  62:/usr/include/c++/8/iostream ****   extern ostream cerr;		/// Linked to standard error (unbuffered)
  63:/usr/include/c++/8/iostream ****   extern ostream clog;		/// Linked to standard error (buffered)
  64:/usr/include/c++/8/iostream **** 
  65:/usr/include/c++/8/iostream **** #ifdef _GLIBCXX_USE_WCHAR_T
  66:/usr/include/c++/8/iostream ****   extern wistream wcin;		/// Linked to standard input
  67:/usr/include/c++/8/iostream ****   extern wostream wcout;	/// Linked to standard output
  68:/usr/include/c++/8/iostream ****   extern wostream wcerr;	/// Linked to standard error (unbuffered)
  69:/usr/include/c++/8/iostream ****   extern wostream wclog;	/// Linked to standard error (buffered)
  70:/usr/include/c++/8/iostream **** #endif
  71:/usr/include/c++/8/iostream ****   //@}
  72:/usr/include/c++/8/iostream **** 
  73:/usr/include/c++/8/iostream ****   // For construction of filebuffers for cout, cin, cerr, clog et. al.
  74:/usr/include/c++/8/iostream ****   static ios_base::Init __ioinit;
 235              		.loc 2 74 25 is_stmt 1
 236 0135 BF000000 		movl	$_ZStL8__ioinit, %edi	#,
 236      00
 237 013a E8000000 		call	_ZNSt8ios_base4InitC1Ev	#
 237      00
 238 013f BA000000 		movl	$__dso_handle, %edx	#,
 238      00
 239 0144 BE000000 		movl	$_ZStL8__ioinit, %esi	#,
 239      00
 240 0149 BF000000 		movl	$_ZNSt8ios_base4InitD1Ev, %edi	#,
 240      00
 241 014e E8000000 		call	__cxa_atexit	#
 241      00
 242              	.L13:
 243              	# ex13.cpp:23: }
 244              		.loc 1 23 1
 245 0153 90       		nop	
 246 0154 C9       		leave	
 247              		.cfi_def_cfa 7, 8
 248 0155 C3       		ret	
 249              		.cfi_endproc
 250              	.LFE2005:
 253              	_GLOBAL__sub_I__Z13ind_iterationPKii:
 254              	.LFB2006:
 255              		.loc 1 23 1
 256              		.cfi_startproc
 257 0156 55       		pushq	%rbp	#
 258              		.cfi_def_cfa_offset 16
 259              		.cfi_offset 6, -16
 260 0157 4889E5   		movq	%rsp, %rbp	#,
 261              		.cfi_def_cfa_register 6
 262              	# ex13.cpp:23: }
 263              		.loc 1 23 1
 264 015a BEFFFF00 		movl	$65535, %esi	#,
 264      00
 265 015f BF010000 		movl	$1, %edi	#,
 265      00
 266 0164 E8AFFFFF 		call	_Z41__static_initialization_and_destruction_0ii	#
 266      FF
 267 0169 5D       		popq	%rbp	#
 268              		.cfi_def_cfa 7, 8
 269 016a C3       		ret	
 270              		.cfi_endproc
 271              	.LFE2006:
 273              		.section	.init_array,"aw"
 274              		.align 8
 275 0000 00000000 		.quad	_GLOBAL__sub_I__Z13ind_iterationPKii
 275      00000000 
 276              		.text
 277              	.Letext0:
 278              		.file 3 "/usr/include/c++/8/cwchar"
 279              		.file 4 "/usr/include/c++/8/new"
 280              		.file 5 "/usr/include/c++/8/bits/exception_ptr.h"
 281              		.file 6 "/usr/include/c++/8/type_traits"
 282              		.file 7 "/usr/include/c++/8/x86_64-redhat-linux/bits/c++config.h"
 283              		.file 8 "/usr/include/c++/8/bits/cpp_type_traits.h"
 284              		.file 9 "/usr/include/c++/8/bits/stl_pair.h"
 285              		.file 10 "/usr/include/c++/8/debug/debug.h"
 286              		.file 11 "/usr/include/c++/8/bits/char_traits.h"
 287              		.file 12 "/usr/include/c++/8/cstdint"
 288              		.file 13 "/usr/include/c++/8/clocale"
 289              		.file 14 "/usr/include/c++/8/cstdlib"
 290              		.file 15 "/usr/include/c++/8/cstdio"
 291              		.file 16 "/usr/include/c++/8/bits/basic_string.h"
 292              		.file 17 "/usr/include/c++/8/system_error"
 293              		.file 18 "/usr/include/c++/8/bits/ios_base.h"
 294              		.file 19 "/usr/include/c++/8/cwctype"
 295              		.file 20 "/usr/include/c++/8/iosfwd"
 296              		.file 21 "/usr/include/c++/8/bits/predefined_ops.h"
 297              		.file 22 "/usr/include/c++/8/ext/new_allocator.h"
 298              		.file 23 "/usr/include/c++/8/ext/numeric_traits.h"
 299              		.file 24 "/usr/lib/gcc/x86_64-redhat-linux/8/include/stddef.h"
 300              		.file 25 "<built-in>"
 301              		.file 26 "/usr/include/bits/types/wint_t.h"
 302              		.file 27 "/usr/include/bits/types/__mbstate_t.h"
 303              		.file 28 "/usr/include/bits/types/mbstate_t.h"
 304              		.file 29 "/usr/include/bits/types/__FILE.h"
 305              		.file 30 "/usr/include/bits/libio.h"
 306              		.file 31 "/usr/include/bits/types/FILE.h"
 307              		.file 32 "/usr/include/wchar.h"
 308              		.file 33 "/usr/include/bits/types/struct_tm.h"
 309              		.file 34 "/usr/include/bits/types.h"
 310              		.file 35 "/usr/include/bits/stdint-intn.h"
 311              		.file 36 "/usr/include/bits/stdint-uintn.h"
 312              		.file 37 "/usr/include/stdint.h"
 313              		.file 38 "/usr/include/locale.h"
 314              		.file 39 "/usr/include/time.h"
 315              		.file 40 "/usr/include/c++/8/x86_64-redhat-linux/bits/atomic_word.h"
 316              		.file 41 "/usr/include/stdlib.h"
 317              		.file 42 "/usr/include/bits/_G_config.h"
 318              		.file 43 "/usr/include/stdio.h"
 319              		.file 44 "/usr/include/bits/sys_errlist.h"
 320              		.file 45 "/usr/include/errno.h"
 321              		.file 46 "/usr/include/bits/wctype-wchar.h"
 322              		.file 47 "/usr/include/wctype.h"
